target datalayout = "e-m:e-p270:32:32-p271:32:32-p272:64:64-i64:64-i128:128-f80:128-n8:16:32:64-S128"
target triple = "x86_64-pc-linux-gnu"

@.str.10 = private unnamed_addr constant [5 x i8] c"LZIP\00", align 1

; Function Attrs: nounwind uwtable
define internal i32 @lzip_has_member(ptr noundef %0) #0 {
  %2 = alloca i32, align 4
  %3 = alloca ptr, align 8
  %4 = alloca ptr, align 8
  %5 = alloca i64, align 8
  %6 = alloca i32, align 4
  %7 = alloca i32, align 4
  %8 = alloca i32, align 4
  store ptr %0, ptr %3, align 8, !tbaa !13
  call void @llvm.lifetime.start.p0(i64 8, ptr %4) #8
  call void @llvm.lifetime.start.p0(i64 8, ptr %5) #8
  call void @llvm.lifetime.start.p0(i64 4, ptr %6) #8
  call void @llvm.lifetime.start.p0(i64 4, ptr %7) #8
  %9 = load ptr, ptr %3, align 8, !tbaa !13
  %10 = call ptr @__archive_read_filter_ahead(ptr noundef %9, i64 noundef 6, ptr noundef %5)
  store ptr %10, ptr %4, align 8, !tbaa !15
  %11 = load ptr, ptr %4, align 8, !tbaa !15
  %12 = icmp eq ptr %11, null
  br i1 %12, label %13, label %14

13:                                               ; preds = %1
  store i32 0, ptr %2, align 4
  store i32 1, ptr %8, align 4
  br label %52

14:                                               ; preds = %1
  store i32 0, ptr %6, align 4, !tbaa !39
  %15 = load ptr, ptr %4, align 8, !tbaa !15
  %16 = call i32 @memcmp(ptr noundef %15, ptr noundef @.str.10, i64 noundef 4) #9
  %17 = icmp ne i32 %16, 0
  br i1 %17, label %18, label %19

18:                                               ; preds = %14
  store i32 0, ptr %2, align 4
  store i32 1, ptr %8, align 4
  br label %52

19:                                               ; preds = %14
  %20 = load i32, ptr %6, align 4, !tbaa !39
  %21 = add nsw i32 %20, 32
  store i32 %21, ptr %6, align 4, !tbaa !39
  %22 = load ptr, ptr %4, align 8, !tbaa !15
  %23 = getelementptr inbounds i8, ptr %22, i64 4
  %24 = load i8, ptr %23, align 1, !tbaa !49
  %25 = zext i8 %24 to i32
  %26 = icmp ne i32 %25, 0
  br i1 %26, label %27, label %34

27:                                               ; preds = %19
  %28 = load ptr, ptr %4, align 8, !tbaa !15
  %29 = getelementptr inbounds i8, ptr %28, i64 4
  %30 = load i8, ptr %29, align 1, !tbaa !49
  %31 = zext i8 %30 to i32
  %32 = icmp ne i32 %31, 1
  br i1 %32, label %33, label %34

33:                                               ; preds = %27
  store i32 0, ptr %2, align 4
  store i32 1, ptr %8, align 4
  br label %52

34:                                               ; preds = %27, %19
  %35 = load i32, ptr %6, align 4, !tbaa !39
  %36 = add nsw i32 %35, 8
  store i32 %36, ptr %6, align 4, !tbaa !39
  %37 = load ptr, ptr %4, align 8, !tbaa !15
  %38 = getelementptr inbounds i8, ptr %37, i64 5
  %39 = load i8, ptr %38, align 1, !tbaa !49
  %40 = zext i8 %39 to i32
  %41 = and i32 %40, 31
  store i32 %41, ptr %7, align 4, !tbaa !39
  %42 = load i32, ptr %7, align 4, !tbaa !39
  %43 = icmp slt i32 %42, 12
  br i1 %43, label %47, label %44

44:                                               ; preds = %34
  %45 = load i32, ptr %7, align 4, !tbaa !39
  %46 = icmp sgt i32 %45, 29
  br i1 %46, label %47, label %48

47:                                               ; preds = %44, %34
  store i32 0, ptr %2, align 4
  store i32 1, ptr %8, align 4
  br label %52

48:                                               ; preds = %44
  %49 = load i32, ptr %6, align 4, !tbaa !39
  %50 = add nsw i32 %49, 8
  store i32 %50, ptr %6, align 4, !tbaa !39
  %51 = load i32, ptr %6, align 4, !tbaa !39
  store i32 %51, ptr %2, align 4
  store i32 1, ptr %8, align 4
  br label %52

52:                                               ; preds = %48, %47, %33, %18, %13
  call void @llvm.lifetime.end.p0(i64 4, ptr %7) #8
  call void @llvm.lifetime.end.p0(i64 4, ptr %6) #8
  call void @llvm.lifetime.end.p0(i64 8, ptr %5) #8
  call void @llvm.lifetime.end.p0(i64 8, ptr %4) #8
  %53 = load i32, ptr %2, align 4
  ret i32 %53
}

; Function Attrs: nounwind uwtable
define internal i32 @lzip_bidder_bid(ptr noundef %0, ptr noundef %1) #0 {
  %3 = alloca ptr, align 8
  %4 = alloca ptr, align 8
  store ptr %0, ptr %3, align 8, !tbaa !11
  store ptr %1, ptr %4, align 8, !tbaa !13
  %5 = load ptr, ptr %4, align 8, !tbaa !13
  %6 = call i32 @lzip_has_member(ptr noundef %5)
  ret i32 %6
}