; Function Attrs: nounwind uwtable
define internal range(i32 0, 49) i32 @lzip_bidder_bid(ptr readnone captures(none) %0, ptr noundef %1) #0 {
  %3 = alloca i64, align 8
  call void @llvm.lifetime.start.p0(i64 8, ptr nonnull %3) #10
  %4 = call ptr @__archive_read_filter_ahead(ptr noundef %1, i64 noundef 6, ptr noundef nonnull %3) #10
  %5 = icmp eq ptr %4, null
  br i1 %5, label %lzip_has_member.exit, label %6

6:                                                ; preds = %2
  %bcmp.i = call i32 @bcmp(ptr noundef nonnull dereferenceable(4) %4, ptr noundef nonnull dereferenceable(4) @.str.10, i64 4)
  %.not.i = icmp eq i32 %bcmp.i, 0
  br i1 %.not.i, label %7, label %lzip_has_member.exit

7:                                                ; preds = %6
  %8 = getelementptr inbounds nuw i8, ptr %4, i64 4
  %9 = load i8, ptr %8, align 1, !tbaa !33
  %switch.i = icmp ult i8 %9, 2
  br i1 %switch.i, label %10, label %lzip_has_member.exit

10:                                               ; preds = %7
  %11 = getelementptr inbounds nuw i8, ptr %4, i64 5
  %12 = load i8, ptr %11, align 1, !tbaa !33
  %13 = and i8 %12, 30
  %14 = add nsw i8 %13, -30
  %or.cond.i = icmp ult i8 %14, -18
  %..i = select i1 %or.cond.i, i32 0, i32 48
  br label %lzip_has_member.exit

lzip_has_member.exit:                             ; preds = %2, %6, %7, %10
  %.0.i = phi i32 [ 0, %2 ], [ 0, %6 ], [ 0, %7 ], [ %..i, %10 ]
  call void @llvm.lifetime.end.p0(i64 8, ptr nonnull %3) #10
  ret i32 %.0.i
}